; Function Attrs: mustprogress nounwind uwtable
define dso_local void @_ZN4llvm16FoldingSetNodeID9AddStringENS_9StringRefE(ptr noundef nonnull align 8 dereferenceable(144) %0, ptr %1, i64 %2) local_unnamed_addr #2 align 2 {
  %4 = trunc i64 %2 to i32
  %5 = icmp ne i32 %4, 0
  %.neg = sext i1 %5 to i32
  %6 = add i32 %.neg, %4
  %7 = lshr i32 %6, 2
  %8 = select i1 %5, i32 2, i32 1
  %9 = add nuw nsw i32 %8, %7
  %10 = tail call noundef i64 @_ZNK4llvm15SmallVectorBaseIjE4sizeEv(ptr noundef nonnull align 8 dereferenceable(16) %0) #21
  %11 = zext nneg i32 %9 to i64
  %12 = add i64 %10, %11
  %13 = tail call noundef i64 @_ZNK4llvm15SmallVectorBaseIjE8capacityEv(ptr noundef nonnull align 8 dereferenceable(16) %0) #21
  %14 = icmp ult i64 %13, %12
  br i1 %14, label %15, label %_ZN4llvm15SmallVectorImplIjE7reserveEm.exit

15:                                               ; preds = %3
  %16 = getelementptr inbounds i8, ptr %0, i64 16
  tail call void @_ZN4llvm15SmallVectorBaseIjE8grow_podEPvmm(ptr noundef nonnull align 8 dereferenceable(16) %0, ptr noundef nonnull %16, i64 noundef %12, i64 noundef 4) #21
  br label %_ZN4llvm15SmallVectorImplIjE7reserveEm.exit

_ZN4llvm15SmallVectorImplIjE7reserveEm.exit:      ; preds = %3, %15
  %17 = tail call noundef i64 @_ZNK4llvm15SmallVectorBaseIjE4sizeEv(ptr noundef nonnull align 8 dereferenceable(16) %0) #21
  %18 = add i64 %17, 1
  %19 = tail call noundef i64 @_ZNK4llvm15SmallVectorBaseIjE8capacityEv(ptr noundef nonnull align 8 dereferenceable(16) %0) #21
  %.not.i.i.i = icmp ugt i64 %18, %19
  br i1 %.not.i.i.i, label %20, label %_ZN4llvm23SmallVectorTemplateBaseIjLb1EE9push_backEj.exit

20:                                               ; preds = %_ZN4llvm15SmallVectorImplIjE7reserveEm.exit
  %21 = getelementptr inbounds i8, ptr %0, i64 16
  tail call void @_ZN4llvm15SmallVectorBaseIjE8grow_podEPvmm(ptr noundef nonnull align 8 dereferenceable(16) %0, ptr noundef nonnull %21, i64 noundef %18, i64 noundef 4) #21
  br label %_ZN4llvm23SmallVectorTemplateBaseIjLb1EE9push_backEj.exit

_ZN4llvm23SmallVectorTemplateBaseIjLb1EE9push_backEj.exit: ; preds = %_ZN4llvm15SmallVectorImplIjE7reserveEm.exit, %20
  %22 = load ptr, ptr %0, align 8
  %23 = tail call noundef i64 @_ZNK4llvm15SmallVectorBaseIjE4sizeEv(ptr noundef nonnull align 8 dereferenceable(16) %0) #21
  %24 = getelementptr inbounds i32, ptr %22, i64 %23
  store i32 %4, ptr %24, align 1
  %25 = tail call noundef i64 @_ZNK4llvm15SmallVectorBaseIjE4sizeEv(ptr noundef nonnull align 8 dereferenceable(16) %0) #21
  %26 = add i64 %25, 1
  tail call void @_ZN4llvm15SmallVectorBaseIjE8set_sizeEm(ptr noundef nonnull align 8 dereferenceable(16) %0, i64 noundef %26) #21
  %.not = icmp eq i32 %4, 0
  br i1 %.not, label %107, label %27

27:                                               ; preds = %_ZN4llvm23SmallVectorTemplateBaseIjLb1EE9push_backEj.exit
  %28 = ptrtoint ptr %1 to i64
  %29 = and i64 %28, 3
  %.not31 = icmp eq i64 %29, 0
  br i1 %.not31, label %31, label %.preheader

.preheader:                                       ; preds = %27
  %.not3244 = icmp ult i32 %4, 4
  br i1 %.not3244, label %.loopexit, label %.lr.ph

.lr.ph:                                           ; preds = %.preheader
  %30 = getelementptr inbounds i8, ptr %0, i64 16
  br label %37

31:                                               ; preds = %27
  %32 = lshr i64 %2, 2
  %33 = and i64 %32, 1073741823
  %34 = getelementptr inbounds i32, ptr %1, i64 %33
  tail call void @_ZN4llvm15SmallVectorImplIjE6appendIPKjvEEvT_S5_(ptr noundef nonnull align 8 dereferenceable(16) %0, ptr noundef %1, ptr noundef %34)
  %35 = and i32 %4, -4
  %36 = add i32 %35, 4
  br label %.loopexit

37:                                               ; preds = %.lr.ph, %_ZN4llvm23SmallVectorTemplateBaseIjLb1EE9push_backEj.exit34
  %.12945 = phi i32 [ 4, %.lr.ph ], [ %73, %_ZN4llvm23SmallVectorTemplateBaseIjLb1EE9push_backEj.exit34 ]
  %38 = add i32 %.12945, -1
  %39 = zext i32 %38 to i64
  %40 = getelementptr inbounds i8, ptr %1, i64 %39
  %41 = load i8, ptr %40, align 1
  %42 = zext i8 %41 to i32
  %43 = shl nuw i32 %42, 24
  %44 = add i32 %.12945, -2
  %45 = zext i32 %44 to i64
  %46 = getelementptr inbounds i8, ptr %1, i64 %45
  %47 = load i8, ptr %46, align 1
  %48 = zext i8 %47 to i32
  %49 = shl nuw nsw i32 %48, 16
  %50 = or disjoint i32 %49, %43
  %51 = add i32 %.12945, -3
  %52 = zext i32 %51 to i64
  %53 = getelementptr inbounds i8, ptr %1, i64 %52
  %54 = load i8, ptr %53, align 1
  %55 = zext i8 %54 to i32
  %56 = shl nuw nsw i32 %55, 8
  %57 = or disjoint i32 %50, %56
  %58 = add i32 %.12945, -4
  %59 = zext i32 %58 to i64
  %60 = getelementptr inbounds i8, ptr %1, i64 %59
  %61 = load i8, ptr %60, align 1
  %62 = zext i8 %61 to i32
  %63 = or disjoint i32 %57, %62
  %64 = tail call noundef i64 @_ZNK4llvm15SmallVectorBaseIjE4sizeEv(ptr noundef nonnull align 8 dereferenceable(16) %0) #21
  %65 = add i64 %64, 1
  %66 = tail call noundef i64 @_ZNK4llvm15SmallVectorBaseIjE8capacityEv(ptr noundef nonnull align 8 dereferenceable(16) %0) #21
  %.not.i.i.i33 = icmp ugt i64 %65, %66
  br i1 %.not.i.i.i33, label %67, label %_ZN4llvm23SmallVectorTemplateBaseIjLb1EE9push_backEj.exit34

67:                                               ; preds = %37
  tail call void @_ZN4llvm15SmallVectorBaseIjE8grow_podEPvmm(ptr noundef nonnull align 8 dereferenceable(16) %0, ptr noundef nonnull %30, i64 noundef %65, i64 noundef 4) #21
  br label %_ZN4llvm23SmallVectorTemplateBaseIjLb1EE9push_backEj.exit34

_ZN4llvm23SmallVectorTemplateBaseIjLb1EE9push_backEj.exit34: ; preds = %37, %67
  %68 = load ptr, ptr %0, align 8
  %69 = tail call noundef i64 @_ZNK4llvm15SmallVectorBaseIjE4sizeEv(ptr noundef nonnull align 8 dereferenceable(16) %0) #21
  %70 = getelementptr inbounds i32, ptr %68, i64 %69
  store i32 %63, ptr %70, align 1
  %71 = tail call noundef i64 @_ZNK4llvm15SmallVectorBaseIjE4sizeEv(ptr noundef nonnull align 8 dereferenceable(16) %0) #21
  %72 = add i64 %71, 1
  tail call void @_ZN4llvm15SmallVectorBaseIjE8set_sizeEm(ptr noundef nonnull align 8 dereferenceable(16) %0, i64 noundef %72) #21
  %73 = add i32 %.12945, 4
  %.not32 = icmp ugt i32 %73, %4
  br i1 %.not32, label %.loopexit, label %37, !llvm.loop !4

.loopexit:                                        ; preds = %_ZN4llvm23SmallVectorTemplateBaseIjLb1EE9push_backEj.exit34, %.preheader, %31
  %.028 = phi i32 [ %36, %31 ], [ 4, %.preheader ], [ %73, %_ZN4llvm23SmallVectorTemplateBaseIjLb1EE9push_backEj.exit34 ]
  %74 = sub i32 %.028, %4
  switch i32 %74, label %107 [
    i32 1, label %75
    i32 2, label %82
    i32 3, label %90
  ]

75:                                               ; preds = %.loopexit
  %76 = add i64 %2, 4294967293
  %77 = and i64 %76, 4294967295
  %78 = getelementptr inbounds i8, ptr %1, i64 %77
  %79 = load i8, ptr %78, align 1
  %80 = zext i8 %79 to i32
  %81 = shl nuw nsw i32 %80, 8
  br label %82

82:                                               ; preds = %75, %.loopexit
  %.0 = phi i32 [ 0, %.loopexit ], [ %81, %75 ]
  %83 = add i64 %2, 4294967294
  %84 = and i64 %83, 4294967295
  %85 = getelementptr inbounds i8, ptr %1, i64 %84
  %86 = load i8, ptr %85, align 1
  %87 = zext i8 %86 to i32
  %88 = or disjoint i32 %.0, %87
  %89 = shl nuw nsw i32 %88, 8
  br label %90

90:                                               ; preds = %82, %.loopexit
  %.1 = phi i32 [ 0, %.loopexit ], [ %89, %82 ]
  %91 = add i64 %2, 4294967295
  %92 = and i64 %91, 4294967295
  %93 = getelementptr inbounds i8, ptr %1, i64 %92
  %94 = load i8, ptr %93, align 1
  %95 = zext i8 %94 to i32
  %96 = or disjoint i32 %.1, %95
  %97 = tail call noundef i64 @_ZNK4llvm15SmallVectorBaseIjE4sizeEv(ptr noundef nonnull align 8 dereferenceable(16) %0) #21
  %98 = add i64 %97, 1
  %99 = tail call noundef i64 @_ZNK4llvm15SmallVectorBaseIjE8capacityEv(ptr noundef nonnull align 8 dereferenceable(16) %0) #21
  %.not.i.i.i35 = icmp ugt i64 %98, %99
  br i1 %.not.i.i.i35, label %100, label %_ZN4llvm23SmallVectorTemplateBaseIjLb1EE9push_backEj.exit36

100:                                              ; preds = %90
  %101 = getelementptr inbounds i8, ptr %0, i64 16
  tail call void @_ZN4llvm15SmallVectorBaseIjE8grow_podEPvmm(ptr noundef nonnull align 8 dereferenceable(16) %0, ptr noundef nonnull %101, i64 noundef %98, i64 noundef 4) #21
  br label %_ZN4llvm23SmallVectorTemplateBaseIjLb1EE9push_backEj.exit36

_ZN4llvm23SmallVectorTemplateBaseIjLb1EE9push_backEj.exit36: ; preds = %90, %100
  %102 = load ptr, ptr %0, align 8
  %103 = tail call noundef i64 @_ZNK4llvm15SmallVectorBaseIjE4sizeEv(ptr noundef nonnull align 8 dereferenceable(16) %0) #21
  %104 = getelementptr inbounds i32, ptr %102, i64 %103
  store i32 %96, ptr %104, align 1
  %105 = tail call noundef i64 @_ZNK4llvm15SmallVectorBaseIjE4sizeEv(ptr noundef nonnull align 8 dereferenceable(16) %0) #21
  %106 = add i64 %105, 1
  tail call void @_ZN4llvm15SmallVectorBaseIjE8set_sizeEm(ptr noundef nonnull align 8 dereferenceable(16) %0, i64 noundef %106) #21
  br label %107

107:                                              ; preds = %.loopexit, %_ZN4llvm23SmallVectorTemplateBaseIjLb1EE9push_backEj.exit, %_ZN4llvm23SmallVectorTemplateBaseIjLb1EE9push_backEj.exit36
  ret void
}